; Function Attrs: nounwind uwtable
define void @dt_mimap_cache_evict(ptr noundef %0, i32 noundef %1) local_unnamed_addr #3 {
  %3 = add i32 %1, 268435455
  %4 = and i32 %3, 268435455
  %5 = getelementptr inbounds nuw i8, ptr %0, i64 176
  br label %7

6:                                                ; preds = %7
  ret void

7:                                                ; preds = %2, %7
  %.06 = phi i32 [ 0, %2 ], [ %11, %7 ]
  %8 = shl nuw i32 %.06, 28
  %9 = or disjoint i32 %8, %4
  %10 = tail call i32 @dt_cache_remove(ptr noundef nonnull %5, i32 noundef %9) #19
  %11 = add nuw nsw i32 %.06, 1
  %exitcond.not = icmp eq i32 %11, 9
  br i1 %exitcond.not, label %6, label %7
}